target datalayout = "e-m:e-p270:32:32-p271:32:32-p272:64:64-i64:64-i128:128-f80:128-n8:16:32:64-S128"
target triple = "x86_64-pc-linux-gnu"

%struct.gz_state = type { %struct.gzFile_s, i32, i32, ptr, i32, i32, ptr, ptr, i32, i32, i64, i32, i32, i32, i32, i32, i64, i32, i32, ptr, %struct.z_stream_s }
%struct.gzFile_s = type { i32, ptr, i64 }
%struct.z_stream_s = type { ptr, i32, i64, ptr, i32, i64, ptr, ptr, ptr, ptr, ptr, i32, i64, i64 }

; Function Attrs: nounwind uwtable
define internal i32 @gz_load(ptr noundef %0, ptr noundef %1, i32 noundef %2, ptr noundef %3) #0 {
  %5 = alloca i32, align 4
  %6 = alloca ptr, align 8
  %7 = alloca ptr, align 8
  %8 = alloca i32, align 4
  %9 = alloca ptr, align 8
  %10 = alloca i32, align 4
  %11 = alloca i32, align 4
  %12 = alloca i32, align 4
  %13 = alloca i32, align 4
  store ptr %0, ptr %6, align 8, !tbaa !8
  store ptr %1, ptr %7, align 8, !tbaa !36
  store i32 %2, ptr %8, align 4, !tbaa !9
  store ptr %3, ptr %9, align 8, !tbaa !56
  call void @llvm.lifetime.start.p0(i64 4, ptr %10) #8
  call void @llvm.lifetime.start.p0(i64 4, ptr %11) #8
  call void @llvm.lifetime.start.p0(i64 4, ptr %12) #8
  store i32 1073741824, ptr %12, align 4, !tbaa !9
  %14 = load ptr, ptr %9, align 8, !tbaa !56
  store i32 0, ptr %14, align 4, !tbaa !9
  br label %15

15:                                               ; preds = %46, %4
  %16 = load i32, ptr %8, align 4, !tbaa !9
  %17 = load ptr, ptr %9, align 8, !tbaa !56
  %18 = load i32, ptr %17, align 4, !tbaa !9
  %19 = sub i32 %16, %18
  store i32 %19, ptr %11, align 4, !tbaa !9
  %20 = load i32, ptr %11, align 4, !tbaa !9
  %21 = load i32, ptr %12, align 4, !tbaa !9
  %22 = icmp ugt i32 %20, %21
  br i1 %22, label %23, label %25

23:                                               ; preds = %15
  %24 = load i32, ptr %12, align 4, !tbaa !9
  store i32 %24, ptr %11, align 4, !tbaa !9
  br label %25

25:                                               ; preds = %23, %15
  %26 = load ptr, ptr %6, align 8, !tbaa !8
  %27 = getelementptr inbounds nuw %struct.gz_state, ptr %26, i32 0, i32 2
  %28 = load i32, ptr %27, align 4, !tbaa !55
  %29 = load ptr, ptr %7, align 8, !tbaa !36
  %30 = load ptr, ptr %9, align 8, !tbaa !56
  %31 = load i32, ptr %30, align 4, !tbaa !9
  %32 = zext i32 %31 to i64
  %33 = getelementptr inbounds nuw i8, ptr %29, i64 %32
  %34 = load i32, ptr %11, align 4, !tbaa !9
  %35 = zext i32 %34 to i64
  %36 = call i64 @read(i32 noundef %28, ptr noundef %33, i64 noundef %35)
  %37 = trunc i64 %36 to i32
  store i32 %37, ptr %10, align 4, !tbaa !9
  %38 = load i32, ptr %10, align 4, !tbaa !9
  %39 = icmp sle i32 %38, 0
  br i1 %39, label %40, label %41

40:                                               ; preds = %25
  br label %51

41:                                               ; preds = %25
  %42 = load i32, ptr %10, align 4, !tbaa !9
  %43 = load ptr, ptr %9, align 8, !tbaa !56
  %44 = load i32, ptr %43, align 4, !tbaa !9
  %45 = add i32 %44, %42
  store i32 %45, ptr %43, align 4, !tbaa !9
  br label %46

46:                                               ; preds = %41
  %47 = load ptr, ptr %9, align 8, !tbaa !56
  %48 = load i32, ptr %47, align 4, !tbaa !9
  %49 = load i32, ptr %8, align 4, !tbaa !9
  %50 = icmp ult i32 %48, %49
  br i1 %50, label %15, label %51, !llvm.loop !58

51:                                               ; preds = %46, %40
  %52 = load i32, ptr %10, align 4, !tbaa !9
  %53 = icmp slt i32 %52, 0
  br i1 %53, label %54, label %59

54:                                               ; preds = %51
  %55 = load ptr, ptr %6, align 8, !tbaa !8
  %56 = call ptr @__errno_location() #11
  %57 = load i32, ptr %56, align 4, !tbaa !9
  %58 = call ptr @strerror(i32 noundef %57) #8
  call void @gz_error(ptr noundef %55, i32 noundef -1, ptr noundef %58)
  store i32 -1, ptr %5, align 4
  store i32 1, ptr %13, align 4
  br label %66

59:                                               ; preds = %51
  %60 = load i32, ptr %10, align 4, !tbaa !9
  %61 = icmp eq i32 %60, 0
  br i1 %61, label %62, label %65

62:                                               ; preds = %59
  %63 = load ptr, ptr %6, align 8, !tbaa !8
  %64 = getelementptr inbounds nuw %struct.gz_state, ptr %63, i32 0, i32 11
  store i32 1, ptr %64, align 8, !tbaa !24
  br label %65

65:                                               ; preds = %62, %59
  store i32 0, ptr %5, align 4
  store i32 1, ptr %13, align 4
  br label %66

66:                                               ; preds = %65, %54
  call void @llvm.lifetime.end.p0(i64 4, ptr %12) #8
  call void @llvm.lifetime.end.p0(i64 4, ptr %11) #8
  call void @llvm.lifetime.end.p0(i64 4, ptr %10) #8
  %67 = load i32, ptr %5, align 4
  ret i32 %67
}

; Function Attrs: nounwind uwtable
define internal i32 @gz_avail(ptr noundef %0) #0 {
  %2 = alloca i32, align 4
  %3 = alloca ptr, align 8
  %4 = alloca i32, align 4
  %5 = alloca ptr, align 8
  %6 = alloca i32, align 4
  %7 = alloca ptr, align 8
  %8 = alloca ptr, align 8
  %9 = alloca i32, align 4
  store ptr %0, ptr %3, align 8, !tbaa !8
  call void @llvm.lifetime.start.p0(i64 4, ptr %4) #8
  call void @llvm.lifetime.start.p0(i64 8, ptr %5) #8
  %10 = load ptr, ptr %3, align 8, !tbaa !8
  %11 = getelementptr inbounds nuw %struct.gz_state, ptr %10, i32 0, i32 20
  store ptr %11, ptr %5, align 8, !tbaa !38
  %12 = load ptr, ptr %3, align 8, !tbaa !8
  %13 = getelementptr inbounds nuw %struct.gz_state, ptr %12, i32 0, i32 18
  %14 = load i32, ptr %13, align 4, !tbaa !18
  %15 = icmp ne i32 %14, 0
  br i1 %15, label %16, label %22

16:                                               ; preds = %1
  %17 = load ptr, ptr %3, align 8, !tbaa !8
  %18 = getelementptr inbounds nuw %struct.gz_state, ptr %17, i32 0, i32 18
  %19 = load i32, ptr %18, align 4, !tbaa !18
  %20 = icmp ne i32 %19, -5
  br i1 %20, label %21, label %22

21:                                               ; preds = %16
  store i32 -1, ptr %2, align 4
  store i32 1, ptr %6, align 4
  br label %85

22:                                               ; preds = %16, %1
  %23 = load ptr, ptr %3, align 8, !tbaa !8
  %24 = getelementptr inbounds nuw %struct.gz_state, ptr %23, i32 0, i32 11
  %25 = load i32, ptr %24, align 8, !tbaa !24
  %26 = icmp eq i32 %25, 0
  br i1 %26, label %27, label %84

27:                                               ; preds = %22
  %28 = load ptr, ptr %5, align 8, !tbaa !38
  %29 = getelementptr inbounds nuw %struct.z_stream_s, ptr %28, i32 0, i32 1
  %30 = load i32, ptr %29, align 8, !tbaa !46
  %31 = icmp ne i32 %30, 0
  br i1 %31, label %32, label %53

32:                                               ; preds = %27
  call void @llvm.lifetime.start.p0(i64 8, ptr %7) #8
  %33 = load ptr, ptr %3, align 8, !tbaa !8
  %34 = getelementptr inbounds nuw %struct.gz_state, ptr %33, i32 0, i32 6
  %35 = load ptr, ptr %34, align 8, !tbaa !41
  store ptr %35, ptr %7, align 8, !tbaa !36
  call void @llvm.lifetime.start.p0(i64 8, ptr %8) #8
  %36 = load ptr, ptr %5, align 8, !tbaa !38
  %37 = getelementptr inbounds nuw %struct.z_stream_s, ptr %36, i32 0, i32 0
  %38 = load ptr, ptr %37, align 8, !tbaa !47
  store ptr %38, ptr %8, align 8, !tbaa !36
  call void @llvm.lifetime.start.p0(i64 4, ptr %9) #8
  %39 = load ptr, ptr %5, align 8, !tbaa !38
  %40 = getelementptr inbounds nuw %struct.z_stream_s, ptr %39, i32 0, i32 1
  %41 = load i32, ptr %40, align 8, !tbaa !46
  store i32 %41, ptr %9, align 4, !tbaa !9
  br label %42

42:                                               ; preds = %48, %32
  %43 = load ptr, ptr %8, align 8, !tbaa !36
  %44 = getelementptr inbounds nuw i8, ptr %43, i32 1
  store ptr %44, ptr %8, align 8, !tbaa !36
  %45 = load i8, ptr %43, align 1, !tbaa !34
  %46 = load ptr, ptr %7, align 8, !tbaa !36
  %47 = getelementptr inbounds nuw i8, ptr %46, i32 1
  store ptr %47, ptr %7, align 8, !tbaa !36
  store i8 %45, ptr %46, align 1, !tbaa !34
  br label %48

48:                                               ; preds = %42
  %49 = load i32, ptr %9, align 4, !tbaa !9
  %50 = add i32 %49, -1
  store i32 %50, ptr %9, align 4, !tbaa !9
  %51 = icmp ne i32 %50, 0
  br i1 %51, label %42, label %52, !llvm.loop !61

52:                                               ; preds = %48
  call void @llvm.lifetime.end.p0(i64 4, ptr %9) #8
  call void @llvm.lifetime.end.p0(i64 8, ptr %8) #8
  call void @llvm.lifetime.end.p0(i64 8, ptr %7) #8
  br label %53

53:                                               ; preds = %52, %27
  %54 = load ptr, ptr %3, align 8, !tbaa !8
  %55 = load ptr, ptr %3, align 8, !tbaa !8
  %56 = getelementptr inbounds nuw %struct.gz_state, ptr %55, i32 0, i32 6
  %57 = load ptr, ptr %56, align 8, !tbaa !41
  %58 = load ptr, ptr %5, align 8, !tbaa !38
  %59 = getelementptr inbounds nuw %struct.z_stream_s, ptr %58, i32 0, i32 1
  %60 = load i32, ptr %59, align 8, !tbaa !46
  %61 = zext i32 %60 to i64
  %62 = getelementptr inbounds nuw i8, ptr %57, i64 %61
  %63 = load ptr, ptr %3, align 8, !tbaa !8
  %64 = getelementptr inbounds nuw %struct.gz_state, ptr %63, i32 0, i32 4
  %65 = load i32, ptr %64, align 8, !tbaa !28
  %66 = load ptr, ptr %5, align 8, !tbaa !38
  %67 = getelementptr inbounds nuw %struct.z_stream_s, ptr %66, i32 0, i32 1
  %68 = load i32, ptr %67, align 8, !tbaa !46
  %69 = sub i32 %65, %68
  %70 = call i32 @gz_load(ptr noundef %54, ptr noundef %62, i32 noundef %69, ptr noundef %4)
  %71 = icmp eq i32 %70, -1
  br i1 %71, label %72, label %73

72:                                               ; preds = %53
  store i32 -1, ptr %2, align 4
  store i32 1, ptr %6, align 4
  br label %85

73:                                               ; preds = %53
  %74 = load i32, ptr %4, align 4, !tbaa !9
  %75 = load ptr, ptr %5, align 8, !tbaa !38
  %76 = getelementptr inbounds nuw %struct.z_stream_s, ptr %75, i32 0, i32 1
  %77 = load i32, ptr %76, align 8, !tbaa !46
  %78 = add i32 %77, %74
  store i32 %78, ptr %76, align 8, !tbaa !46
  %79 = load ptr, ptr %3, align 8, !tbaa !8
  %80 = getelementptr inbounds nuw %struct.gz_state, ptr %79, i32 0, i32 6
  %81 = load ptr, ptr %80, align 8, !tbaa !41
  %82 = load ptr, ptr %5, align 8, !tbaa !38
  %83 = getelementptr inbounds nuw %struct.z_stream_s, ptr %82, i32 0, i32 0
  store ptr %81, ptr %83, align 8, !tbaa !47
  br label %84

84:                                               ; preds = %73, %22
  store i32 0, ptr %2, align 4
  store i32 1, ptr %6, align 4
  br label %85

85:                                               ; preds = %84, %72, %21
  call void @llvm.lifetime.end.p0(i64 8, ptr %5) #8
  call void @llvm.lifetime.end.p0(i64 4, ptr %4) #8
  %86 = load i32, ptr %2, align 4
  ret i32 %86
}